; Function Attrs: mustprogress nofree norecurse nosync nounwind willreturn memory(argmem: write) uwtable
define void @_ZN6google8protobuf4util18MessageDifferencer14StreamReporterC2EPNS0_2io7PrinterE(ptr nocapture noundef nonnull writeonly align 8 dereferenceable(48) %this, ptr noundef %printer) unnamed_addr #4 align 2 personality ptr @__gxx_personality_v0 {
entry:
  store ptr getelementptr inbounds ({ [14 x ptr] }, ptr @_ZTVN6google8protobuf4util18MessageDifferencer14StreamReporterE, i64 0, i32 0, i64 2), ptr %this, align 8
  %printer_ = getelementptr inbounds i8, ptr %this, i64 8
  store ptr %printer, ptr %printer_, align 8
  %delete_printer_ = getelementptr inbounds i8, ptr %this, i64 16
  store i8 0, ptr %delete_printer_, align 8
  %report_modified_aggregates_ = getelementptr inbounds i8, ptr %this, i64 17
  store i8 0, ptr %report_modified_aggregates_, align 1
  %message1_ = getelementptr inbounds i8, ptr %this, i64 24
  tail call void @llvm.memset.p0.i64(ptr noundef nonnull align 8 dereferenceable(24) %message1_, i8 0, i64 24, i1 false)
  ret void
}